target datalayout = "e-m:e-p270:32:32-p271:32:32-p272:64:64-i64:64-i128:128-f80:128-n8:16:32:64-S128"
target triple = "x86_64-pc-linux-gnu"

%struct.Vec_Int_t_ = type { i32, i32, ptr }
%struct.Abc_ManRst_t_ = type { ptr, i32, i32, i32, i32, ptr, ptr, ptr, ptr, ptr, ptr, ptr, ptr, ptr, ptr, ptr, i32, i32, i32, i32, i32, i32, i32, i32, i32, i32, i32, i32, i32 }
%struct.Dec_Graph_t_ = type { i32, i32, i32, i32, ptr, %struct.Dec_Edge_t_ }
%struct.Dec_Edge_t_ = type { i32 }

; Function Attrs: nounwind uwtable
define internal void @Dec_GraphFree(ptr noundef %0) #0 {
  %2 = alloca ptr, align 8
  store ptr %0, ptr %2, align 8
  %3 = load ptr, ptr %2, align 8
  %4 = getelementptr inbounds %struct.Dec_Graph_t_, ptr %3, i32 0, i32 4
  %5 = load ptr, ptr %4, align 8
  %6 = icmp ne ptr %5, null
  br i1 %6, label %7, label %13

7:                                                ; preds = %1
  %8 = load ptr, ptr %2, align 8
  %9 = getelementptr inbounds %struct.Dec_Graph_t_, ptr %8, i32 0, i32 4
  %10 = load ptr, ptr %9, align 8
  call void @free(ptr noundef %10) #10
  %11 = load ptr, ptr %2, align 8
  %12 = getelementptr inbounds %struct.Dec_Graph_t_, ptr %11, i32 0, i32 4
  store ptr null, ptr %12, align 8
  br label %14

13:                                               ; preds = %1
  br label %14

14:                                               ; preds = %13, %7
  %15 = load ptr, ptr %2, align 8
  %16 = icmp ne ptr %15, null
  br i1 %16, label %17, label %19

17:                                               ; preds = %14
  %18 = load ptr, ptr %2, align 8
  call void @free(ptr noundef %18) #10
  store ptr null, ptr %2, align 8
  br label %20

19:                                               ; preds = %14
  br label %20

20:                                               ; preds = %19, %17
  ret void
}

; Function Attrs: nounwind uwtable
define i32 @Abc_NodeCheckFull(ptr noundef %0, ptr noundef %1) #0 {
  %3 = alloca ptr, align 8
  %4 = alloca ptr, align 8
  store ptr %0, ptr %3, align 8
  store ptr %1, ptr %4, align 8
  ret i32 1
}

; Function Attrs: nounwind uwtable
define internal ptr @Dec_GraphCreateConst1() #0 {
  %1 = alloca ptr, align 8
  %2 = call noalias ptr @malloc(i64 noundef 32) #9
  store ptr %2, ptr %1, align 8
  %3 = load ptr, ptr %1, align 8
  call void @llvm.memset.p0.i64(ptr align 8 %3, i8 0, i64 32, i1 false)
  %4 = load ptr, ptr %1, align 8
  %5 = getelementptr inbounds %struct.Dec_Graph_t_, ptr %4, i32 0, i32 0
  store i32 1, ptr %5, align 8
  %6 = load ptr, ptr %1, align 8
  ret ptr %6
}

; Function Attrs: nounwind uwtable
define internal ptr @Dec_GraphCreateConst0() #0 {
  %1 = alloca ptr, align 8
  %2 = call noalias ptr @malloc(i64 noundef 32) #9
  store ptr %2, ptr %1, align 8
  %3 = load ptr, ptr %1, align 8
  call void @llvm.memset.p0.i64(ptr align 8 %3, i8 0, i64 32, i1 false)
  %4 = load ptr, ptr %1, align 8
  %5 = getelementptr inbounds %struct.Dec_Graph_t_, ptr %4, i32 0, i32 0
  store i32 1, ptr %5, align 8
  %6 = load ptr, ptr %1, align 8
  %7 = getelementptr inbounds %struct.Dec_Graph_t_, ptr %6, i32 0, i32 5
  %8 = load i32, ptr %7, align 8
  %9 = and i32 %8, -2
  %10 = or i32 %9, 1
  store i32 %10, ptr %7, align 8
  %11 = load ptr, ptr %1, align 8
  ret ptr %11
}

; Function Attrs: nounwind uwtable
define internal i32 @Vec_IntEntryLast(ptr noundef %0) #0 {
  %2 = alloca ptr, align 8
  store ptr %0, ptr %2, align 8
  %3 = load ptr, ptr %2, align 8
  %4 = getelementptr inbounds %struct.Vec_Int_t_, ptr %3, i32 0, i32 2
  %5 = load ptr, ptr %4, align 8
  %6 = load ptr, ptr %2, align 8
  %7 = getelementptr inbounds %struct.Vec_Int_t_, ptr %6, i32 0, i32 1
  %8 = load i32, ptr %7, align 4
  %9 = sub nsw i32 %8, 1
  %10 = sext i32 %9 to i64
  %11 = getelementptr inbounds i32, ptr %5, i64 %10
  %12 = load i32, ptr %11, align 4
  ret i32 %12
}

; Function Attrs: nounwind uwtable
define ptr @Abc_NodeMffcDoubleNode(ptr noundef %0, ptr noundef %1, i32 noundef %2, ptr noundef %3) #0 {
  %5 = alloca ptr, align 8
  %6 = alloca ptr, align 8
  %7 = alloca i32, align 4
  %8 = alloca ptr, align 8
  store ptr %0, ptr %5, align 8
  store ptr %1, ptr %6, align 8
  store i32 %2, ptr %7, align 4
  store ptr %3, ptr %8, align 8
  ret ptr null
}

; Function Attrs: nounwind uwtable
define internal i32 @Vec_IntSize(ptr noundef %0) #0 {
  %2 = alloca ptr, align 8
  store ptr %0, ptr %2, align 8
  %3 = load ptr, ptr %2, align 8
  %4 = getelementptr inbounds %struct.Vec_Int_t_, ptr %3, i32 0, i32 1
  %5 = load i32, ptr %4, align 4
  ret i32 %5
}

; Function Attrs: nounwind uwtable
define ptr @Abc_NodeMffcConstants(ptr noundef %0, ptr noundef %1) #0 {
  %3 = alloca ptr, align 8
  %4 = alloca ptr, align 8
  %5 = alloca ptr, align 8
  %6 = alloca ptr, align 8
  %7 = alloca i32, align 4
  store ptr %0, ptr %4, align 8
  store ptr %1, ptr %5, align 8
  store ptr null, ptr %6, align 8
  %8 = load ptr, ptr %5, align 8
  %9 = call i32 @Vec_IntEntryLast(ptr noundef %8)
  store i32 %9, ptr %7, align 4
  %10 = load i32, ptr %7, align 4
  %11 = icmp eq i32 %10, 0
  br i1 %11, label %12, label %14

12:                                               ; preds = %2
  %13 = call ptr @Dec_GraphCreateConst0()
  store ptr %13, ptr %6, align 8
  br label %20

14:                                               ; preds = %2
  %15 = load i32, ptr %7, align 4
  %16 = icmp eq i32 %15, -1
  br i1 %16, label %17, label %19

17:                                               ; preds = %14
  %18 = call ptr @Dec_GraphCreateConst1()
  store ptr %18, ptr %6, align 8
  br label %19

19:                                               ; preds = %17, %14
  br label %20

20:                                               ; preds = %19, %12
  %21 = load ptr, ptr %4, align 8
  %22 = load ptr, ptr %6, align 8
  %23 = call i32 @Abc_NodeCheckFull(ptr noundef %21, ptr noundef %22)
  %24 = icmp ne i32 %23, 0
  br i1 %24, label %25, label %27

25:                                               ; preds = %20
  %26 = load ptr, ptr %6, align 8
  store ptr %26, ptr %3, align 8
  br label %29

27:                                               ; preds = %20
  %28 = load ptr, ptr %6, align 8
  call void @Dec_GraphFree(ptr noundef %28)
  store ptr null, ptr %3, align 8
  br label %29

29:                                               ; preds = %27, %25
  %30 = load ptr, ptr %3, align 8
  ret ptr %30
}

; Function Attrs: nounwind uwtable
define ptr @Abc_NodeResubEval(ptr noundef %0, ptr noundef %1, ptr noundef %2) #0 {
  %4 = alloca ptr, align 8
  %5 = alloca ptr, align 8
  %6 = alloca ptr, align 8
  %7 = alloca ptr, align 8
  %8 = alloca ptr, align 8
  %9 = alloca i32, align 4
  store ptr %0, ptr %5, align 8
  store ptr %1, ptr %6, align 8
  store ptr %2, ptr %7, align 8
  %10 = load ptr, ptr %5, align 8
  %11 = load ptr, ptr %6, align 8
  %12 = load ptr, ptr %7, align 8
  %13 = call i32 @Abc_Abc_NodeResubCollectDivs(ptr noundef %10, ptr noundef %11, ptr noundef %12)
  %14 = icmp ne i32 %13, 0
  br i1 %14, label %16, label %15

15:                                               ; preds = %3
  store ptr null, ptr %4, align 8
  br label %155

16:                                               ; preds = %3
  %17 = load ptr, ptr %5, align 8
  %18 = load ptr, ptr %5, align 8
  %19 = getelementptr inbounds %struct.Abc_ManRst_t_, ptr %18, i32 0, i32 9
  %20 = load ptr, ptr %19, align 8
  %21 = load ptr, ptr %7, align 8
  %22 = load i32, ptr %21, align 8
  %23 = lshr i32 %22, 28
  %24 = load ptr, ptr %6, align 8
  %25 = call i32 @Abc_NodeResubMffc(ptr noundef %17, ptr noundef %20, i32 noundef %23, ptr noundef %24)
  store i32 %25, ptr %9, align 4
  %26 = load ptr, ptr %5, align 8
  %27 = getelementptr inbounds %struct.Abc_ManRst_t_, ptr %26, i32 0, i32 9
  %28 = load ptr, ptr %27, align 8
  %29 = load ptr, ptr %7, align 8
  %30 = load i32, ptr %29, align 8
  %31 = lshr i32 %30, 28
  %32 = load ptr, ptr %5, align 8
  %33 = getelementptr inbounds %struct.Abc_ManRst_t_, ptr %32, i32 0, i32 12
  %34 = load ptr, ptr %33, align 8
  %35 = load ptr, ptr %5, align 8
  %36 = getelementptr inbounds %struct.Abc_ManRst_t_, ptr %35, i32 0, i32 11
  %37 = load ptr, ptr %36, align 8
  call void @Abc_NodeMffcSimulate(ptr noundef %28, i32 noundef %31, ptr noundef %34, ptr noundef %37)
  %38 = load ptr, ptr %5, align 8
  %39 = load ptr, ptr %5, align 8
  %40 = getelementptr inbounds %struct.Abc_ManRst_t_, ptr %39, i32 0, i32 11
  %41 = load ptr, ptr %40, align 8
  %42 = call ptr @Abc_NodeMffcConstants(ptr noundef %38, ptr noundef %41)
  store ptr %42, ptr %8, align 8
  %43 = load ptr, ptr %8, align 8
  %44 = icmp ne ptr %43, null
  br i1 %44, label %45, label %56

45:                                               ; preds = %16
  %46 = load i32, ptr %9, align 4
  %47 = load ptr, ptr %5, align 8
  %48 = getelementptr inbounds %struct.Abc_ManRst_t_, ptr %47, i32 0, i32 21
  %49 = load i32, ptr %48, align 4
  %50 = add nsw i32 %49, %46
  store i32 %50, ptr %48, align 4
  %51 = load ptr, ptr %5, align 8
  %52 = getelementptr inbounds %struct.Abc_ManRst_t_, ptr %51, i32 0, i32 20
  %53 = load i32, ptr %52, align 8
  %54 = add nsw i32 %53, 1
  store i32 %54, ptr %52, align 8
  %55 = load ptr, ptr %8, align 8
  store ptr %55, ptr %4, align 8
  br label %155

56:                                               ; preds = %16
  %57 = load ptr, ptr %5, align 8
  %58 = load ptr, ptr %5, align 8
  %59 = getelementptr inbounds %struct.Abc_ManRst_t_, ptr %58, i32 0, i32 11
  %60 = load ptr, ptr %59, align 8
  %61 = load ptr, ptr %5, align 8
  %62 = getelementptr inbounds %struct.Abc_ManRst_t_, ptr %61, i32 0, i32 11
  %63 = load ptr, ptr %62, align 8
  %64 = call i32 @Vec_IntSize(ptr noundef %63)
  %65 = load i32, ptr %9, align 4
  %66 = sub nsw i32 %64, %65
  %67 = load ptr, ptr %5, align 8
  %68 = getelementptr inbounds %struct.Abc_ManRst_t_, ptr %67, i32 0, i32 13
  %69 = load ptr, ptr %68, align 8
  %70 = call ptr @Abc_NodeMffcSingleVar(ptr noundef %57, ptr noundef %60, i32 noundef %66, ptr noundef %69)
  store ptr %70, ptr %8, align 8
  %71 = load ptr, ptr %8, align 8
  %72 = icmp ne ptr %71, null
  br i1 %72, label %73, label %84

73:                                               ; preds = %56
  %74 = load i32, ptr %9, align 4
  %75 = load ptr, ptr %5, align 8
  %76 = getelementptr inbounds %struct.Abc_ManRst_t_, ptr %75, i32 0, i32 21
  %77 = load i32, ptr %76, align 4
  %78 = add nsw i32 %77, %74
  store i32 %78, ptr %76, align 4
  %79 = load ptr, ptr %5, align 8
  %80 = getelementptr inbounds %struct.Abc_ManRst_t_, ptr %79, i32 0, i32 20
  %81 = load i32, ptr %80, align 8
  %82 = add nsw i32 %81, 1
  store i32 %82, ptr %80, align 8
  %83 = load ptr, ptr %8, align 8
  store ptr %83, ptr %4, align 8
  br label %155

84:                                               ; preds = %56
  %85 = load i32, ptr %9, align 4
  %86 = icmp eq i32 %85, 1
  br i1 %86, label %87, label %88

87:                                               ; preds = %84
  store ptr null, ptr %4, align 8
  br label %155

88:                                               ; preds = %84
  %89 = load ptr, ptr %5, align 8
  %90 = load ptr, ptr %5, align 8
  %91 = getelementptr inbounds %struct.Abc_ManRst_t_, ptr %90, i32 0, i32 11
  %92 = load ptr, ptr %91, align 8
  %93 = load ptr, ptr %5, align 8
  %94 = getelementptr inbounds %struct.Abc_ManRst_t_, ptr %93, i32 0, i32 11
  %95 = load ptr, ptr %94, align 8
  %96 = call i32 @Vec_IntSize(ptr noundef %95)
  %97 = load i32, ptr %9, align 4
  %98 = sub nsw i32 %96, %97
  %99 = load ptr, ptr %5, align 8
  %100 = getelementptr inbounds %struct.Abc_ManRst_t_, ptr %99, i32 0, i32 13
  %101 = load ptr, ptr %100, align 8
  %102 = call ptr @Abc_NodeMffcSingleNode(ptr noundef %89, ptr noundef %92, i32 noundef %98, ptr noundef %101)
  store ptr %102, ptr %8, align 8
  %103 = load ptr, ptr %8, align 8
  %104 = icmp ne ptr %103, null
  br i1 %104, label %105, label %117

105:                                              ; preds = %88
  %106 = load i32, ptr %9, align 4
  %107 = sub nsw i32 %106, 1
  %108 = load ptr, ptr %5, align 8
  %109 = getelementptr inbounds %struct.Abc_ManRst_t_, ptr %108, i32 0, i32 21
  %110 = load i32, ptr %109, align 4
  %111 = add nsw i32 %110, %107
  store i32 %111, ptr %109, align 4
  %112 = load ptr, ptr %5, align 8
  %113 = getelementptr inbounds %struct.Abc_ManRst_t_, ptr %112, i32 0, i32 20
  %114 = load i32, ptr %113, align 8
  %115 = add nsw i32 %114, 1
  store i32 %115, ptr %113, align 8
  %116 = load ptr, ptr %8, align 8
  store ptr %116, ptr %4, align 8
  br label %155

117:                                              ; preds = %88
  %118 = load i32, ptr %9, align 4
  %119 = icmp eq i32 %118, 2
  br i1 %119, label %120, label %121

120:                                              ; preds = %117
  store ptr null, ptr %4, align 8
  br label %155

121:                                              ; preds = %117
  %122 = load ptr, ptr %5, align 8
  %123 = load ptr, ptr %5, align 8
  %124 = getelementptr inbounds %struct.Abc_ManRst_t_, ptr %123, i32 0, i32 11
  %125 = load ptr, ptr %124, align 8
  %126 = load ptr, ptr %5, align 8
  %127 = getelementptr inbounds %struct.Abc_ManRst_t_, ptr %126, i32 0, i32 11
  %128 = load ptr, ptr %127, align 8
  %129 = call i32 @Vec_IntSize(ptr noundef %128)
  %130 = load i32, ptr %9, align 4
  %131 = sub nsw i32 %129, %130
  %132 = load ptr, ptr %5, align 8
  %133 = getelementptr inbounds %struct.Abc_ManRst_t_, ptr %132, i32 0, i32 13
  %134 = load ptr, ptr %133, align 8
  %135 = call ptr @Abc_NodeMffcDoubleNode(ptr noundef %122, ptr noundef %125, i32 noundef %131, ptr noundef %134)
  store ptr %135, ptr %8, align 8
  %136 = load ptr, ptr %8, align 8
  %137 = icmp ne ptr %136, null
  br i1 %137, label %138, label %150

138:                                              ; preds = %121
  %139 = load i32, ptr %9, align 4
  %140 = sub nsw i32 %139, 2
  %141 = load ptr, ptr %5, align 8
  %142 = getelementptr inbounds %struct.Abc_ManRst_t_, ptr %141, i32 0, i32 21
  %143 = load i32, ptr %142, align 4
  %144 = add nsw i32 %143, %140
  store i32 %144, ptr %142, align 4
  %145 = load ptr, ptr %5, align 8
  %146 = getelementptr inbounds %struct.Abc_ManRst_t_, ptr %145, i32 0, i32 20
  %147 = load i32, ptr %146, align 8
  %148 = add nsw i32 %147, 1
  store i32 %148, ptr %146, align 8
  %149 = load ptr, ptr %8, align 8
  store ptr %149, ptr %4, align 8
  br label %155

150:                                              ; preds = %121
  %151 = load i32, ptr %9, align 4
  %152 = icmp eq i32 %151, 3
  br i1 %152, label %153, label %154

153:                                              ; preds = %150
  store ptr null, ptr %4, align 8
  br label %155

154:                                              ; preds = %150
  store ptr null, ptr %4, align 8
  br label %155

155:                                              ; preds = %154, %153, %138, %120, %105, %87, %73, %45, %15
  %156 = load ptr, ptr %4, align 8
  ret ptr %156
}