; Function Attrs: nounwind uwtable
define noalias noundef ptr @Abc_NodeResubEval(ptr noundef captures(none) %0, ptr noundef readonly captures(none) %1, ptr noundef readonly captures(none) %2) local_unnamed_addr #0 {
  %4 = tail call i32 @Abc_Abc_NodeResubCollectDivs(ptr noundef %0, ptr noundef %1, ptr noundef %2)
  %.not = icmp eq i32 %4, 0
  br i1 %.not, label %54, label %5

5:                                                ; preds = %3
  %6 = getelementptr inbounds nuw i8, ptr %0, i64 56
  %7 = load ptr, ptr %6, align 8
  %8 = load i32, ptr %2, align 8
  %9 = lshr i32 %8, 28
  %10 = tail call i32 @Abc_NodeResubMffc(ptr noundef %0, ptr noundef %7, i32 noundef %9, ptr noundef %1)
  %11 = load ptr, ptr %6, align 8
  %12 = load i32, ptr %2, align 8
  %13 = lshr i32 %12, 28
  %14 = getelementptr inbounds nuw i8, ptr %0, i64 80
  %15 = load ptr, ptr %14, align 8
  %16 = getelementptr inbounds nuw i8, ptr %0, i64 72
  %17 = load ptr, ptr %16, align 8
  tail call void @Abc_NodeMffcSimulate(ptr noundef %11, i32 noundef %13, ptr noundef %15, ptr noundef %17)
  %18 = load ptr, ptr %16, align 8
  %19 = getelementptr i8, ptr %18, i64 4
  %.val.i = load i32, ptr %19, align 4
  %20 = getelementptr i8, ptr %18, i64 8
  %.val9.i = load ptr, ptr %20, align 8
  %21 = sext i32 %.val.i to i64
  %22 = getelementptr i32, ptr %.val9.i, i64 %21
  %23 = getelementptr i8, ptr %22, i64 -4
  %24 = load i32, ptr %23, align 4
  switch i32 %24, label %Abc_NodeMffcConstants.exit [
    i32 0, label %25
    i32 -1, label %27
  ]

25:                                               ; preds = %5
  %calloc.i.i = tail call noalias noundef dereferenceable_or_null(32) ptr @calloc(i64 1, i64 32)
  store i32 1, ptr %calloc.i.i, align 8
  %26 = getelementptr inbounds nuw i8, ptr %calloc.i.i, i64 24
  store i32 1, ptr %26, align 8
  br label %28

27:                                               ; preds = %5
  %calloc.i10.i = tail call noalias noundef dereferenceable_or_null(32) ptr @calloc(i64 1, i64 32)
  store i32 1, ptr %calloc.i10.i, align 8
  br label %28

28:                                               ; preds = %25, %27
  %.07.i.ph = phi ptr [ %calloc.i10.i, %27 ], [ %calloc.i.i, %25 ]
  %29 = getelementptr inbounds nuw i8, ptr %0, i64 132
  %30 = load i32, ptr %29, align 4
  %31 = add nsw i32 %30, %10
  store i32 %31, ptr %29, align 4
  br label %.sink.split

Abc_NodeMffcConstants.exit:                       ; preds = %5
  %32 = sub nsw i32 %.val.i, %10
  %33 = getelementptr inbounds nuw i8, ptr %0, i64 88
  %34 = load ptr, ptr %33, align 8
  %35 = tail call ptr @Abc_NodeMffcSingleVar(ptr noundef nonnull %0, ptr noundef nonnull %18, i32 noundef %32, ptr noundef %34)
  %.not56 = icmp eq ptr %35, null
  br i1 %.not56, label %40, label %36

36:                                               ; preds = %Abc_NodeMffcConstants.exit
  %37 = getelementptr inbounds nuw i8, ptr %0, i64 132
  %38 = load i32, ptr %37, align 4
  %39 = add nsw i32 %38, %10
  store i32 %39, ptr %37, align 4
  br label %.sink.split

40:                                               ; preds = %Abc_NodeMffcConstants.exit
  %41 = icmp eq i32 %10, 1
  br i1 %41, label %54, label %42

42:                                               ; preds = %40
  %43 = load ptr, ptr %16, align 8
  %44 = load ptr, ptr %33, align 8
  %45 = tail call ptr @Abc_NodeMffcSingleNode(ptr noundef nonnull %0, ptr noundef %43, i32 poison, ptr noundef %44)
  %.not57 = icmp eq ptr %45, null
  br i1 %.not57, label %54, label %46

46:                                               ; preds = %42
  %47 = add nsw i32 %10, -1
  %48 = getelementptr inbounds nuw i8, ptr %0, i64 132
  %49 = load i32, ptr %48, align 4
  %50 = add nsw i32 %47, %49
  store i32 %50, ptr %48, align 4
  br label %.sink.split

.sink.split:                                      ; preds = %28, %36, %46
  %.0.ph = phi ptr [ %45, %46 ], [ %35, %36 ], [ %.07.i.ph, %28 ]
  %51 = getelementptr inbounds nuw i8, ptr %0, i64 128
  %52 = load i32, ptr %51, align 8
  %53 = add nsw i32 %52, 1
  store i32 %53, ptr %51, align 8
  br label %54

54:                                               ; preds = %.sink.split, %42, %40, %3
  %.0 = phi ptr [ null, %3 ], [ null, %40 ], [ null, %42 ], [ %.0.ph, %.sink.split ]
  ret ptr %.0
}